; Function Attrs: nounwind uwtable
define range(i32 -2, 2147483647) i32 @X509_NAME_get_index_by_NID(ptr noundef readonly captures(address_is_null) %0, i32 noundef %1, i32 noundef %2) local_unnamed_addr #0 {
  %4 = tail call ptr @OBJ_nid2obj(i32 noundef %1) #6
  %5 = icmp eq ptr %4, null
  br i1 %5, label %X509_NAME_get_index_by_OBJ.exit, label %6

6:                                                ; preds = %3
  %7 = icmp eq ptr %0, null
  br i1 %7, label %X509_NAME_get_index_by_OBJ.exit, label %8

8:                                                ; preds = %6
  %spec.store.select.i = tail call i32 @llvm.smax.i32(i32 %2, i32 -1)
  %9 = load ptr, ptr %0, align 8, !tbaa !3
  %10 = tail call i32 @OPENSSL_sk_num(ptr noundef %9) #6
  br label %11

11:                                               ; preds = %13, %8
  %.013.in.i = phi i32 [ %spec.store.select.i, %8 ], [ %.013.i, %13 ]
  %.013.i = add nsw i32 %.013.in.i, 1
  %12 = icmp slt i32 %.013.i, %10
  br i1 %12, label %13, label %X509_NAME_get_index_by_OBJ.exit

13:                                               ; preds = %11
  %14 = tail call ptr @OPENSSL_sk_value(ptr noundef %9, i32 noundef %.013.i) #6
  %15 = load ptr, ptr %14, align 8, !tbaa !12
  %16 = tail call i32 @OBJ_cmp(ptr noundef %15, ptr noundef nonnull %4) #6
  %17 = icmp eq i32 %16, 0
  br i1 %17, label %X509_NAME_get_index_by_OBJ.exit, label %11, !llvm.loop !16

X509_NAME_get_index_by_OBJ.exit:                  ; preds = %13, %11, %6, %3
  %.0 = phi i32 [ -2, %3 ], [ -1, %6 ], [ %.013.i, %13 ], [ -1, %11 ]
  ret i32 %.0
}